target datalayout = "e-m:e-p270:32:32-p271:32:32-p272:64:64-i64:64-i128:128-f80:128-n8:16:32:64-S128"
target triple = "x86_64-pc-linux-gnu"

%struct.hwloc_obj = type { i32, ptr, i32, ptr, i64, ptr, i32, i32, ptr, ptr, ptr, i32, ptr, ptr, i32, ptr, ptr, ptr, i32, i32, ptr, i32, ptr, i32, ptr, ptr, ptr, ptr, ptr, ptr, i32, ptr, i64 }

; Function Attrs: nounwind uwtable
define ptr @prte_hwloc_base_generate_cpuset(ptr noundef %0, i1 noundef zeroext %1, ptr noundef %2) #0 {
  %4 = alloca ptr, align 8
  %5 = alloca i8, align 1
  %6 = alloca ptr, align 8
  %7 = alloca ptr, align 8
  %8 = alloca ptr, align 8
  %9 = alloca ptr, align 8
  %10 = alloca ptr, align 8
  %11 = alloca ptr, align 8
  %12 = alloca i32, align 4
  %13 = alloca i32, align 4
  %14 = alloca i32, align 4
  %15 = alloca i32, align 4
  %16 = alloca ptr, align 8
  store ptr %0, ptr %4, align 8, !tbaa !3
  %17 = zext i1 %1 to i8
  store i8 %17, ptr %5, align 1, !tbaa !20
  store ptr %2, ptr %6, align 8, !tbaa !26
  call void @llvm.lifetime.start.p0(i64 8, ptr %7) #10
  store ptr null, ptr %7, align 8, !tbaa !27
  call void @llvm.lifetime.start.p0(i64 8, ptr %8) #10
  call void @llvm.lifetime.start.p0(i64 8, ptr %9) #10
  call void @llvm.lifetime.start.p0(i64 8, ptr %10) #10
  store ptr null, ptr %10, align 8, !tbaa !28
  call void @llvm.lifetime.start.p0(i64 8, ptr %11) #10
  store ptr null, ptr %11, align 8, !tbaa !28
  call void @llvm.lifetime.start.p0(i64 4, ptr %12) #10
  call void @llvm.lifetime.start.p0(i64 4, ptr %13) #10
  call void @llvm.lifetime.start.p0(i64 4, ptr %14) #10
  call void @llvm.lifetime.start.p0(i64 4, ptr %15) #10
  call void @llvm.lifetime.start.p0(i64 8, ptr %16) #10
  %18 = load ptr, ptr %6, align 8, !tbaa !26
  %19 = call ptr @PMIx_Argv_split(ptr noundef %18, i32 noundef 44)
  store ptr %19, ptr %10, align 8, !tbaa !28
  %20 = call noalias ptr @hwloc_bitmap_alloc()
  store ptr %20, ptr %7, align 8, !tbaa !27
  %21 = load ptr, ptr %7, align 8, !tbaa !27
  call void @hwloc_bitmap_zero(ptr noundef %21)
  %22 = call noalias ptr @hwloc_bitmap_alloc()
  store ptr %22, ptr %9, align 8, !tbaa !27
  %23 = call noalias ptr @hwloc_bitmap_alloc()
  store ptr %23, ptr %8, align 8, !tbaa !27
  store i32 0, ptr %12, align 4, !tbaa !19
  br label %24

24:                                               ; preds = %112, %3
  %25 = load i32, ptr %12, align 4, !tbaa !19
  %26 = load ptr, ptr %10, align 8, !tbaa !28
  %27 = call i32 @PMIx_Argv_count(ptr noundef %26)
  %28 = icmp slt i32 %25, %27
  br i1 %28, label %29, label %115

29:                                               ; preds = %24
  %30 = load ptr, ptr %10, align 8, !tbaa !28
  %31 = load i32, ptr %12, align 4, !tbaa !19
  %32 = sext i32 %31 to i64
  %33 = getelementptr inbounds ptr, ptr %30, i64 %32
  %34 = load ptr, ptr %33, align 8, !tbaa !26
  %35 = call ptr @PMIx_Argv_split(ptr noundef %34, i32 noundef 45)
  store ptr %35, ptr %11, align 8, !tbaa !28
  %36 = load ptr, ptr %11, align 8, !tbaa !28
  %37 = call i32 @PMIx_Argv_count(ptr noundef %36)
  switch i32 %37, label %109 [
    i32 1, label %38
    i32 2, label %66
  ]

38:                                               ; preds = %29
  %39 = load ptr, ptr %11, align 8, !tbaa !28
  %40 = getelementptr inbounds ptr, ptr %39, i64 0
  %41 = load ptr, ptr %40, align 8, !tbaa !26
  %42 = call i64 @strtoul(ptr noundef %41, ptr noundef null, i32 noundef 10) #10
  %43 = trunc i64 %42 to i32
  store i32 %43, ptr %13, align 4, !tbaa !19
  %44 = load ptr, ptr %4, align 8, !tbaa !3
  %45 = load i8, ptr %5, align 1, !tbaa !20, !range !22, !noundef !23
  %46 = trunc i8 %45 to i1
  %47 = load i32, ptr %13, align 4, !tbaa !19
  %48 = call ptr @prte_hwloc_base_get_pu(ptr noundef %44, i1 noundef zeroext %46, i32 noundef %47)
  store ptr %48, ptr %16, align 8, !tbaa !8
  %49 = icmp ne ptr null, %48
  br i1 %49, label %50, label %65

50:                                               ; preds = %38
  %51 = load ptr, ptr %8, align 8, !tbaa !27
  %52 = load ptr, ptr %16, align 8, !tbaa !8
  %53 = getelementptr inbounds nuw %struct.hwloc_obj, ptr %52, i32 0, i32 25
  %54 = load ptr, ptr %53, align 8, !tbaa !10
  %55 = load ptr, ptr %4, align 8, !tbaa !3
  %56 = call ptr @hwloc_topology_get_allowed_cpuset(ptr noundef %55) #11
  %57 = call i32 @hwloc_bitmap_and(ptr noundef %51, ptr noundef %54, ptr noundef %56)
  %58 = load ptr, ptr %9, align 8, !tbaa !27
  %59 = load ptr, ptr %7, align 8, !tbaa !27
  %60 = load ptr, ptr %8, align 8, !tbaa !27
  %61 = call i32 @hwloc_bitmap_or(ptr noundef %58, ptr noundef %59, ptr noundef %60)
  %62 = load ptr, ptr %7, align 8, !tbaa !27
  %63 = load ptr, ptr %9, align 8, !tbaa !27
  %64 = call i32 @hwloc_bitmap_copy(ptr noundef %62, ptr noundef %63)
  br label %65

65:                                               ; preds = %50, %38
  br label %110

66:                                               ; preds = %29
  %67 = load ptr, ptr %11, align 8, !tbaa !28
  %68 = getelementptr inbounds ptr, ptr %67, i64 0
  %69 = load ptr, ptr %68, align 8, !tbaa !26
  %70 = call i64 @strtoul(ptr noundef %69, ptr noundef null, i32 noundef 10) #10
  %71 = trunc i64 %70 to i32
  store i32 %71, ptr %14, align 4, !tbaa !19
  %72 = load ptr, ptr %11, align 8, !tbaa !28
  %73 = getelementptr inbounds ptr, ptr %72, i64 1
  %74 = load ptr, ptr %73, align 8, !tbaa !26
  %75 = call i64 @strtoul(ptr noundef %74, ptr noundef null, i32 noundef 10) #10
  %76 = trunc i64 %75 to i32
  store i32 %76, ptr %15, align 4, !tbaa !19
  %77 = load i32, ptr %14, align 4, !tbaa !19
  store i32 %77, ptr %13, align 4, !tbaa !19
  br label %78

78:                                               ; preds = %105, %66
  %79 = load i32, ptr %13, align 4, !tbaa !19
  %80 = load i32, ptr %15, align 4, !tbaa !19
  %81 = icmp sle i32 %79, %80
  br i1 %81, label %82, label %108

82:                                               ; preds = %78
  %83 = load ptr, ptr %4, align 8, !tbaa !3
  %84 = load i8, ptr %5, align 1, !tbaa !20, !range !22, !noundef !23
  %85 = trunc i8 %84 to i1
  %86 = load i32, ptr %13, align 4, !tbaa !19
  %87 = call ptr @prte_hwloc_base_get_pu(ptr noundef %83, i1 noundef zeroext %85, i32 noundef %86)
  store ptr %87, ptr %16, align 8, !tbaa !8
  %88 = icmp ne ptr null, %87
  br i1 %88, label %89, label %104

89:                                               ; preds = %82
  %90 = load ptr, ptr %8, align 8, !tbaa !27
  %91 = load ptr, ptr %16, align 8, !tbaa !8
  %92 = getelementptr inbounds nuw %struct.hwloc_obj, ptr %91, i32 0, i32 25
  %93 = load ptr, ptr %92, align 8, !tbaa !10
  %94 = load ptr, ptr %4, align 8, !tbaa !3
  %95 = call ptr @hwloc_topology_get_allowed_cpuset(ptr noundef %94) #11
  %96 = call i32 @hwloc_bitmap_and(ptr noundef %90, ptr noundef %93, ptr noundef %95)
  %97 = load ptr, ptr %9, align 8, !tbaa !27
  %98 = load ptr, ptr %7, align 8, !tbaa !27
  %99 = load ptr, ptr %8, align 8, !tbaa !27
  %100 = call i32 @hwloc_bitmap_or(ptr noundef %97, ptr noundef %98, ptr noundef %99)
  %101 = load ptr, ptr %7, align 8, !tbaa !27
  %102 = load ptr, ptr %9, align 8, !tbaa !27
  %103 = call i32 @hwloc_bitmap_copy(ptr noundef %101, ptr noundef %102)
  br label %104

104:                                              ; preds = %89, %82
  br label %105

105:                                              ; preds = %104
  %106 = load i32, ptr %13, align 4, !tbaa !19
  %107 = add nsw i32 %106, 1
  store i32 %107, ptr %13, align 4, !tbaa !19
  br label %78, !llvm.loop !30

108:                                              ; preds = %78
  br label %110

109:                                              ; preds = %29
  br label %110

110:                                              ; preds = %109, %108, %65
  %111 = load ptr, ptr %11, align 8, !tbaa !28
  call void @PMIx_Argv_free(ptr noundef %111)
  br label %112

112:                                              ; preds = %110
  %113 = load i32, ptr %12, align 4, !tbaa !19
  %114 = add nsw i32 %113, 1
  store i32 %114, ptr %12, align 4, !tbaa !19
  br label %24, !llvm.loop !32

115:                                              ; preds = %24
  %116 = load ptr, ptr %10, align 8, !tbaa !28
  %117 = icmp ne ptr null, %116
  br i1 %117, label %118, label %120

118:                                              ; preds = %115
  %119 = load ptr, ptr %10, align 8, !tbaa !28
  call void @PMIx_Argv_free(ptr noundef %119)
  br label %120

120:                                              ; preds = %118, %115
  %121 = load ptr, ptr %9, align 8, !tbaa !27
  call void @hwloc_bitmap_free(ptr noundef %121)
  %122 = load ptr, ptr %8, align 8, !tbaa !27
  call void @hwloc_bitmap_free(ptr noundef %122)
  %123 = load ptr, ptr %7, align 8, !tbaa !27
  call void @llvm.lifetime.end.p0(i64 8, ptr %16) #10
  call void @llvm.lifetime.end.p0(i64 4, ptr %15) #10
  call void @llvm.lifetime.end.p0(i64 4, ptr %14) #10
  call void @llvm.lifetime.end.p0(i64 4, ptr %13) #10
  call void @llvm.lifetime.end.p0(i64 4, ptr %12) #10
  call void @llvm.lifetime.end.p0(i64 8, ptr %11) #10
  call void @llvm.lifetime.end.p0(i64 8, ptr %10) #10
  call void @llvm.lifetime.end.p0(i64 8, ptr %9) #10
  call void @llvm.lifetime.end.p0(i64 8, ptr %8) #10
  call void @llvm.lifetime.end.p0(i64 8, ptr %7) #10
  ret ptr %123
}