; Function Attrs: nounwind uwtable
define noundef ptr @prte_hwloc_base_generate_cpuset(ptr noundef %0, i1 noundef zeroext %1, ptr noundef %2) local_unnamed_addr #0 {
  %4 = tail call ptr @PMIx_Argv_split(ptr noundef %2, i32 noundef 44) #18
  %5 = tail call noalias ptr @hwloc_bitmap_alloc() #18
  tail call void @hwloc_bitmap_zero(ptr noundef %5) #18
  %6 = tail call noalias ptr @hwloc_bitmap_alloc() #18
  %7 = tail call noalias ptr @hwloc_bitmap_alloc() #18
  %8 = tail call i32 @PMIx_Argv_count(ptr noundef %4) #18
  %9 = icmp sgt i32 %8, 0
  br i1 %9, label %.lr.ph52, label %._crit_edge

.lr.ph52:                                         ; preds = %3, %.loopexit
  %indvars.iv = phi i64 [ %indvars.iv.next, %.loopexit ], [ 0, %3 ]
  %10 = getelementptr inbounds nuw ptr, ptr %4, i64 %indvars.iv
  %11 = load ptr, ptr %10, align 8, !tbaa !20
  %12 = tail call ptr @PMIx_Argv_split(ptr noundef %11, i32 noundef 45) #18
  %13 = tail call i32 @PMIx_Argv_count(ptr noundef %12) #18
  switch i32 %13, label %.loopexit [
    i32 1, label %14
    i32 2, label %26
  ]

14:                                               ; preds = %.lr.ph52
  %15 = load ptr, ptr %12, align 8, !tbaa !20
  %16 = tail call i64 @strtoul(ptr noundef captures(none) %15, ptr noundef null, i32 noundef 10) #18
  %17 = trunc i64 %16 to i32
  %18 = tail call ptr @prte_hwloc_base_get_pu(ptr noundef %0, i1 noundef zeroext %1, i32 noundef %17)
  %.not48 = icmp eq ptr %18, null
  br i1 %.not48, label %.loopexit, label %19

19:                                               ; preds = %14
  %20 = getelementptr inbounds nuw i8, ptr %18, i64 184
  %21 = load ptr, ptr %20, align 8, !tbaa !3
  %22 = tail call ptr @hwloc_topology_get_allowed_cpuset(ptr noundef %0) #19
  %23 = tail call i32 @hwloc_bitmap_and(ptr noundef %7, ptr noundef %21, ptr noundef %22) #18
  %24 = tail call i32 @hwloc_bitmap_or(ptr noundef %6, ptr noundef %5, ptr noundef %7) #18
  %25 = tail call i32 @hwloc_bitmap_copy(ptr noundef %5, ptr noundef %6) #18
  br label %.loopexit

26:                                               ; preds = %.lr.ph52
  %27 = load ptr, ptr %12, align 8, !tbaa !20
  %28 = tail call i64 @strtoul(ptr noundef captures(none) %27, ptr noundef null, i32 noundef 10) #18
  %29 = trunc i64 %28 to i32
  %30 = getelementptr inbounds nuw i8, ptr %12, i64 8
  %31 = load ptr, ptr %30, align 8, !tbaa !20
  %32 = tail call i64 @strtoul(ptr noundef captures(none) %31, ptr noundef null, i32 noundef 10) #18
  %33 = trunc i64 %32 to i32
  %.not4649 = icmp sgt i32 %29, %33
  br i1 %.not4649, label %.loopexit, label %.lr.ph

.lr.ph:                                           ; preds = %26, %73
  %.050 = phi i32 [ %74, %73 ], [ %29, %26 ]
  br i1 %1, label %prte_hwloc_base_core_cpus.exit.thread.i, label %34

34:                                               ; preds = %.lr.ph
  %35 = tail call i32 @hwloc_get_type_depth(ptr noundef %0, i32 noundef 2) #18
  %switch.i.i.i = icmp ugt i32 %35, -3
  br i1 %switch.i.i.i, label %prte_hwloc_base_core_cpus.exit.thread.i, label %hwloc_get_obj_by_type.exit.i.i

hwloc_get_obj_by_type.exit.i.i:                   ; preds = %34
  %36 = tail call ptr @hwloc_get_obj_by_depth(ptr noundef %0, i32 noundef %35, i32 noundef 0) #19
  %37 = icmp eq ptr %36, null
  br i1 %37, label %prte_hwloc_base_core_cpus.exit.thread.i, label %prte_hwloc_base_core_cpus.exit.i

prte_hwloc_base_core_cpus.exit.i:                 ; preds = %hwloc_get_obj_by_type.exit.i.i
  %38 = tail call i32 @hwloc_get_type_depth(ptr noundef %0, i32 noundef 3) #18
  %switch.i7.i.i = icmp ult i32 %38, -2
  tail call void @llvm.assume(i1 %switch.i7.i.i)
  %39 = tail call ptr @hwloc_get_obj_by_depth(ptr noundef %0, i32 noundef %38, i32 noundef 0) #19
  %40 = getelementptr inbounds nuw i8, ptr %36, i64 184
  %41 = load ptr, ptr %40, align 8, !tbaa !3
  %42 = getelementptr inbounds nuw i8, ptr %39, i64 184
  %43 = load ptr, ptr %42, align 8, !tbaa !3
  %44 = tail call i32 @hwloc_bitmap_isequal(ptr noundef %41, ptr noundef %43) #19
  %.not.i.i = icmp eq i32 %44, 0
  br i1 %.not.i.i, label %45, label %prte_hwloc_base_core_cpus.exit.thread.i

prte_hwloc_base_core_cpus.exit.thread.i:          ; preds = %prte_hwloc_base_core_cpus.exit.i, %hwloc_get_obj_by_type.exit.i.i, %34, %.lr.ph
  br label %45

45:                                               ; preds = %prte_hwloc_base_core_cpus.exit.thread.i, %prte_hwloc_base_core_cpus.exit.i
  %.0.i = phi i32 [ 3, %prte_hwloc_base_core_cpus.exit.thread.i ], [ 2, %prte_hwloc_base_core_cpus.exit.i ]
  %46 = load i32, ptr @prte_hwloc_base_output, align 4, !tbaa !16
  %or.cond.i = icmp ult i32 %46, 64
  br i1 %or.cond.i, label %47, label %53

47:                                               ; preds = %45
  %48 = zext nneg i32 %46 to i64
  %49 = getelementptr inbounds nuw [0 x %struct.pmix_output_desc_t], ptr @pmix_output_info, i64 0, i64 %48, i32 2
  %50 = load i32, ptr %49, align 4, !tbaa !17
  %51 = icmp sgt i32 %50, 4
  br i1 %51, label %52, label %53

52:                                               ; preds = %47
  tail call void (i32, ptr, ...) @pmix_output(i32 noundef %46, ptr noundef nonnull @.str, i32 noundef %.050) #18
  br label %53

53:                                               ; preds = %52, %47, %45
  %54 = tail call i32 @hwloc_get_type_depth(ptr noundef %0, i32 noundef range(i32 14, 13) %.0.i) #18
  %switch.i.i = icmp ugt i32 %54, -3
  br i1 %switch.i.i, label %hwloc_get_obj_by_type.exit.i, label %55

55:                                               ; preds = %53
  %56 = tail call ptr @hwloc_get_obj_by_depth(ptr noundef %0, i32 noundef %54, i32 noundef %.050) #19
  br label %hwloc_get_obj_by_type.exit.i

hwloc_get_obj_by_type.exit.i:                     ; preds = %55, %53
  %.0.i13.i = phi ptr [ %56, %55 ], [ null, %53 ]
  %57 = load i32, ptr @prte_hwloc_base_output, align 4, !tbaa !16
  %or.cond3.i = icmp ult i32 %57, 64
  br i1 %or.cond3.i, label %58, label %prte_hwloc_base_get_pu.exit

58:                                               ; preds = %hwloc_get_obj_by_type.exit.i
  %59 = zext nneg i32 %57 to i64
  %60 = getelementptr inbounds nuw [0 x %struct.pmix_output_desc_t], ptr @pmix_output_info, i64 0, i64 %59, i32 2
  %61 = load i32, ptr %60, align 4, !tbaa !17
  %62 = icmp sgt i32 %61, 4
  br i1 %62, label %63, label %prte_hwloc_base_get_pu.exit

63:                                               ; preds = %58
  %64 = icmp eq ptr %.0.i13.i, null
  %65 = select i1 %64, ptr @.str.2, ptr @.str.3
  tail call void (i32, ptr, ...) @pmix_output(i32 noundef %57, ptr noundef nonnull @.str.1, i32 noundef %.050, ptr noundef nonnull %65) #18
  br label %prte_hwloc_base_get_pu.exit

prte_hwloc_base_get_pu.exit:                      ; preds = %hwloc_get_obj_by_type.exit.i, %58, %63
  %.not47 = icmp eq ptr %.0.i13.i, null
  br i1 %.not47, label %73, label %66

66:                                               ; preds = %prte_hwloc_base_get_pu.exit
  %67 = getelementptr inbounds nuw i8, ptr %.0.i13.i, i64 184
  %68 = load ptr, ptr %67, align 8, !tbaa !3
  %69 = tail call ptr @hwloc_topology_get_allowed_cpuset(ptr noundef %0) #19
  %70 = tail call i32 @hwloc_bitmap_and(ptr noundef %7, ptr noundef %68, ptr noundef %69) #18
  %71 = tail call i32 @hwloc_bitmap_or(ptr noundef %6, ptr noundef %5, ptr noundef %7) #18
  %72 = tail call i32 @hwloc_bitmap_copy(ptr noundef %5, ptr noundef %6) #18
  br label %73

73:                                               ; preds = %prte_hwloc_base_get_pu.exit, %66
  %74 = add i32 %.050, 1
  %exitcond.not = icmp eq i32 %.050, %33
  br i1 %exitcond.not, label %.loopexit, label %.lr.ph, !llvm.loop !21

.loopexit:                                        ; preds = %73, %26, %.lr.ph52, %14, %19
  tail call void @PMIx_Argv_free(ptr noundef %12) #18
  %indvars.iv.next = add nuw nsw i64 %indvars.iv, 1
  %75 = tail call i32 @PMIx_Argv_count(ptr noundef %4) #18
  %76 = sext i32 %75 to i64
  %77 = icmp slt i64 %indvars.iv.next, %76
  br i1 %77, label %.lr.ph52, label %._crit_edge, !llvm.loop !23

._crit_edge:                                      ; preds = %.loopexit, %3
  %.not = icmp eq ptr %4, null
  br i1 %.not, label %79, label %78

78:                                               ; preds = %._crit_edge
  tail call void @PMIx_Argv_free(ptr noundef nonnull %4) #18
  br label %79

79:                                               ; preds = %78, %._crit_edge
  tail call void @hwloc_bitmap_free(ptr noundef %6) #18
  tail call void @hwloc_bitmap_free(ptr noundef %7) #18
  ret ptr %5
}